target datalayout = "e-m:e-p270:32:32-p271:32:32-p272:64:64-i64:64-i128:128-f80:128-n8:16:32:64-S128"
target triple = "x86_64-pc-linux-gnu"

%class.XReferenceProcessor = type { %class.ReferenceDiscoverer, ptr, ptr, %class.XValue, %class.XValue, %class.XValue, %class.XValue.0, %class.XValue.1, ptr }
%class.ReferenceDiscoverer = type { ptr }
%class.XValue = type { i64 }
%class.XValue.0 = type { i64 }
%class.XValue.1 = type { i64 }

; Function Attrs: mustprogress nounwind uwtable
define hidden noundef zeroext i1 @_ZNK19XReferenceProcessor14is_softly_liveEP7oopDesc13ReferenceType(ptr noundef nonnull align 8 dereferenceable(72) %0, ptr noundef %1, i32 noundef %2) #1 align 2 {
  %4 = alloca i1, align 1
  %5 = alloca ptr, align 8
  %6 = alloca ptr, align 8
  %7 = alloca i32, align 4
  %8 = alloca i64, align 8
  store ptr %0, ptr %5, align 8
  store ptr %1, ptr %6, align 8
  store i32 %2, ptr %7, align 4
  %9 = load ptr, ptr %5, align 8
  %10 = load i32, ptr %7, align 4
  %11 = icmp ne i32 %10, 1
  br i1 %11, label %12, label %13

12:                                               ; preds = %3
  store i1 false, ptr %4, align 1
  br label %24

13:                                               ; preds = %3
  %14 = call noundef i64 @_ZN27java_lang_ref_SoftReference5clockEv()
  store i64 %14, ptr %8, align 8
  %15 = getelementptr inbounds %class.XReferenceProcessor, ptr %9, i32 0, i32 2
  %16 = load ptr, ptr %15, align 8
  %17 = load ptr, ptr %6, align 8
  %18 = load i64, ptr %8, align 8
  %19 = load ptr, ptr %16, align 8
  %20 = getelementptr inbounds ptr, ptr %19, i64 0
  %21 = load ptr, ptr %20, align 8
  %22 = call noundef zeroext i1 %21(ptr noundef nonnull align 8 dereferenceable(8) %16, ptr noundef %17, i64 noundef %18)
  %23 = xor i1 %22, true
  store i1 %23, ptr %4, align 1
  br label %24

24:                                               ; preds = %13, %12
  %25 = load i1, ptr %4, align 1
  ret i1 %25
}