; Function Attrs: mustprogress nounwind uwtable
define hidden noundef zeroext i1 @_ZNK19XReferenceProcessor14is_softly_liveEP7oopDesc13ReferenceType(ptr nocapture noundef nonnull readonly align 8 dereferenceable(72) %0, ptr noundef %1, i32 noundef %2) local_unnamed_addr #1 align 2 {
  %.not = icmp eq i32 %2, 1
  br i1 %.not, label %4, label %12

4:                                                ; preds = %3
  %5 = tail call noundef i64 @_ZN27java_lang_ref_SoftReference5clockEv() #12
  %6 = getelementptr inbounds i8, ptr %0, i64 16
  %7 = load ptr, ptr %6, align 8
  %8 = load ptr, ptr %7, align 8
  %9 = load ptr, ptr %8, align 8
  %10 = tail call noundef zeroext i1 %9(ptr noundef nonnull align 8 dereferenceable(8) %7, ptr noundef %1, i64 noundef %5) #12
  %11 = xor i1 %10, true
  br label %12

12:                                               ; preds = %3, %4
  %.0 = phi i1 [ %11, %4 ], [ false, %3 ]
  ret i1 %.0
}